target datalayout = "e-m:e-p270:32:32-p271:32:32-p272:64:64-i64:64-i128:128-f80:128-n8:16:32:64-S128"
target triple = "x86_64-pc-linux-gnu"

%struct.ParseContext_ = type { %struct.TokenData, i32, %union.SourceSpan, %union.SourceSpan, ptr, %struct.Lexer }
%struct.TokenData = type { ptr, i64, %union.anon.86 }
%union.anon.86 = type { %struct.anon.89 }
%struct.anon.89 = type { %struct.Int128_, i8 }
%struct.Int128_ = type { i64, i64 }
%union.SourceSpan = type { i64 }
%struct.Lexer = type { ptr, ptr, ptr, ptr, i32, i32, ptr, ptr, ptr, %struct.TokenData, %union.SourceSpan, i32, i32 }
%struct.Expr_ = type { ptr, %union.SourceSpan, i16, %union.anon.30 }
%union.anon.30 = type { %struct.ExprAnySwitch }
%struct.ExprAnySwitch = type { i8, %union.anon.32 }
%union.anon.32 = type { %struct.anon.33 }
%struct.anon.33 = type { ptr, %union.SourceSpan, ptr }
%struct.Int = type { %struct.Int128_, i32 }
%struct.ExprConst = type { i16, %union.anon.39 }
%union.anon.39 = type { %struct.Int }

@.str.36 = private unnamed_addr constant [27 x i8] c"Expected an integer value.\00", align 1
@.str.38 = private unnamed_addr constant [38 x i8] c"The value is too high for a scale: %s\00", align 1
@.str.39 = private unnamed_addr constant [23 x i8] c"Expected 1, 2, 4 or 8.\00", align 1

; Function Attrs: nounwind uwtable
define internal zeroext i1 @parse_asm_scale(ptr noundef %0, ptr noundef %1) #0 {
  %3 = alloca ptr, align 8
  %4 = alloca i32, align 4
  %5 = alloca i1, align 1
  %6 = alloca ptr, align 8
  %7 = alloca ptr, align 8
  %8 = alloca ptr, align 8
  %9 = alloca %struct.Int, align 8
  store ptr %0, ptr %6, align 8
  store ptr %1, ptr %7, align 8
  %10 = load ptr, ptr %6, align 8
  store ptr %10, ptr %3, align 8
  store i32 77, ptr %4, align 4
  %11 = load ptr, ptr %3, align 8
  %12 = getelementptr inbounds %struct.ParseContext_, ptr %11, i32 0, i32 1
  %13 = load i32, ptr %12, align 8
  %14 = load i32, ptr %4, align 4
  %15 = icmp eq i32 %13, %14
  br i1 %15, label %21, label %16

16:                                               ; preds = %2
  %17 = load ptr, ptr %6, align 8
  %18 = getelementptr inbounds %struct.ParseContext_, ptr %17, i32 0, i32 2
  %19 = getelementptr inbounds %union.SourceSpan, ptr %18, i32 0, i32 0
  %20 = load i64, ptr %19, align 8
  call void (i64, ptr, ...) @sema_error_at(i64 %20, ptr noundef @.str.36)
  store i1 false, ptr %5, align 1
  br label %67

21:                                               ; preds = %2
  %22 = load ptr, ptr %6, align 8
  %23 = call ptr @parse_integer(ptr noundef %22, ptr noundef null)
  store ptr %23, ptr %8, align 8
  %24 = load ptr, ptr %8, align 8
  %25 = getelementptr inbounds %struct.Expr_, ptr %24, i32 0, i32 3
  %26 = getelementptr inbounds %struct.ExprConst, ptr %25, i32 0, i32 1
  call void @llvm.memcpy.p0.p0.i64(ptr align 8 %9, ptr align 8 %26, i64 24, i1 false)
  %27 = getelementptr inbounds %struct.Int, ptr %9, i32 0, i32 0
  %28 = getelementptr inbounds %struct.Int128_, ptr %27, i32 0, i32 0
  %29 = load i64, ptr %28, align 8
  %30 = icmp ne i64 %29, 0
  br i1 %30, label %31, label %37

31:                                               ; preds = %21
  %32 = load ptr, ptr %6, align 8
  %33 = getelementptr inbounds %struct.ParseContext_, ptr %32, i32 0, i32 2
  %34 = call ptr @int_to_str(ptr noundef byval(%struct.Int) align 8 %9, i32 noundef 10)
  %35 = getelementptr inbounds %union.SourceSpan, ptr %33, i32 0, i32 0
  %36 = load i64, ptr %35, align 8
  call void (i64, ptr, ...) @sema_error_at(i64 %36, ptr noundef @.str.38, ptr noundef %34)
  store i1 false, ptr %5, align 1
  br label %67

37:                                               ; preds = %21
  %38 = getelementptr inbounds %struct.Int, ptr %9, i32 0, i32 0
  %39 = getelementptr inbounds %struct.Int128_, ptr %38, i32 0, i32 1
  %40 = load i64, ptr %39, align 8
  switch i64 %40, label %61 [
    i64 1, label %41
    i64 2, label %46
    i64 4, label %51
    i64 8, label %56
  ]

41:                                               ; preds = %37
  %42 = load ptr, ptr %7, align 8
  %43 = load i64, ptr %42, align 8
  %44 = and i64 %43, -270582939649
  %45 = or i64 %44, 0
  store i64 %45, ptr %42, align 8
  br label %66

46:                                               ; preds = %37
  %47 = load ptr, ptr %7, align 8
  %48 = load i64, ptr %47, align 8
  %49 = and i64 %48, -270582939649
  %50 = or i64 %49, 4294967296
  store i64 %50, ptr %47, align 8
  br label %66

51:                                               ; preds = %37
  %52 = load ptr, ptr %7, align 8
  %53 = load i64, ptr %52, align 8
  %54 = and i64 %53, -270582939649
  %55 = or i64 %54, 8589934592
  store i64 %55, ptr %52, align 8
  br label %66

56:                                               ; preds = %37
  %57 = load ptr, ptr %7, align 8
  %58 = load i64, ptr %57, align 8
  %59 = and i64 %58, -270582939649
  %60 = or i64 %59, 12884901888
  store i64 %60, ptr %57, align 8
  br label %66

61:                                               ; preds = %37
  %62 = load ptr, ptr %6, align 8
  %63 = getelementptr inbounds %struct.ParseContext_, ptr %62, i32 0, i32 2
  %64 = getelementptr inbounds %union.SourceSpan, ptr %63, i32 0, i32 0
  %65 = load i64, ptr %64, align 8
  call void (i64, ptr, ...) @sema_error_at(i64 %65, ptr noundef @.str.39)
  store i1 false, ptr %5, align 1
  br label %67

66:                                               ; preds = %56, %51, %46, %41
  store i1 true, ptr %5, align 1
  br label %67

67:                                               ; preds = %66, %61, %31, %16
  %68 = load i1, ptr %5, align 1
  ret i1 %68
}