; Function Attrs: nounwind uwtable
define internal fastcc noundef zeroext i1 @parse_asm_scale(ptr noundef %0, ptr nocapture noundef %1) unnamed_addr #0 {
  %3 = getelementptr inbounds i8, ptr %0, i64 40
  %4 = load i32, ptr %3, align 8
  %5 = icmp eq i32 %4, 77
  br i1 %5, label %9, label %6

6:                                                ; preds = %2
  %7 = getelementptr inbounds i8, ptr %0, i64 48
  %8 = load i64, ptr %7, align 8
  tail call void (i64, ptr, ...) @sema_error_at(i64 %8, ptr noundef nonnull @.str.36) #5
  br label %35

9:                                                ; preds = %2
  %10 = tail call ptr @parse_integer(ptr noundef nonnull %0, ptr noundef null) #5
  %11 = getelementptr inbounds i8, ptr %10, i64 32
  %.sroa.0.0.copyload = load i64, ptr %11, align 8
  %.not = icmp eq i64 %.sroa.0.0.copyload, 0
  br i1 %.not, label %16, label %12

12:                                               ; preds = %9
  %13 = getelementptr inbounds i8, ptr %0, i64 48
  %14 = tail call ptr @int_to_str(ptr noundef nonnull byval(%struct.Int) align 8 %11, i32 noundef 10) #5
  %15 = load i64, ptr %13, align 8
  tail call void (i64, ptr, ...) @sema_error_at(i64 %15, ptr noundef nonnull @.str.38, ptr noundef %14) #5
  br label %35

16:                                               ; preds = %9
  %.sroa.2.0..sroa_idx = getelementptr inbounds i8, ptr %10, i64 40
  %.sroa.2.0.copyload = load i64, ptr %.sroa.2.0..sroa_idx, align 8
  switch i64 %.sroa.2.0.copyload, label %32 [
    i64 1, label %17
    i64 2, label %20
    i64 4, label %24
    i64 8, label %28
  ]

17:                                               ; preds = %16
  %18 = load i64, ptr %1, align 8
  %19 = and i64 %18, -270582939649
  store i64 %19, ptr %1, align 8
  br label %35

20:                                               ; preds = %16
  %21 = load i64, ptr %1, align 8
  %22 = and i64 %21, -270582939649
  %23 = or disjoint i64 %22, 4294967296
  store i64 %23, ptr %1, align 8
  br label %35

24:                                               ; preds = %16
  %25 = load i64, ptr %1, align 8
  %26 = and i64 %25, -270582939649
  %27 = or disjoint i64 %26, 8589934592
  store i64 %27, ptr %1, align 8
  br label %35

28:                                               ; preds = %16
  %29 = load i64, ptr %1, align 8
  %30 = and i64 %29, -270582939649
  %31 = or disjoint i64 %30, 12884901888
  store i64 %31, ptr %1, align 8
  br label %35

32:                                               ; preds = %16
  %33 = getelementptr inbounds i8, ptr %0, i64 48
  %34 = load i64, ptr %33, align 8
  tail call void (i64, ptr, ...) @sema_error_at(i64 %34, ptr noundef nonnull @.str.39) #5
  br label %35

35:                                               ; preds = %17, %20, %24, %28, %32, %12, %6
  %.0 = phi i1 [ false, %12 ], [ false, %32 ], [ false, %6 ], [ true, %28 ], [ true, %24 ], [ true, %20 ], [ true, %17 ]
  ret i1 %.0
}